; Function Attrs: mustprogress nounwind uwtable
define dso_local void @_ZN4node4wasi4WASID0Ev(ptr noundef nonnull align 8 dereferenceable(176) %this) unnamed_addr #3 align 2 {
entry:
  store ptr getelementptr inbounds ({ [19 x ptr], [3 x ptr] }, ptr @_ZTVN4node4wasi4WASIE, i64 0, i32 0, i64 2), ptr %this, align 8
  %add.ptr.i = getelementptr inbounds i8, ptr %this, i64 32
  store ptr getelementptr inbounds ({ [19 x ptr], [3 x ptr] }, ptr @_ZTVN4node4wasi4WASIE, i64 0, i32 1, i64 2), ptr %add.ptr.i, align 8
  %uvw_.i = getelementptr inbounds i8, ptr %this, i64 40
  tail call void @uvwasi_destroy(ptr noundef nonnull %uvw_.i) #24
  %current_uvwasi_memory_.i = getelementptr inbounds i8, ptr %this, i64 168
  %0 = load i64, ptr %current_uvwasi_memory_.i, align 8
  %cmp.not.i = icmp eq i64 %0, 0
  br i1 %cmp.not.i, label %do.end6.i, label %do.body4.i

do.body4.i:                                       ; preds = %entry
  tail call void @_ZN4node6AssertERKNS_13AssertionInfoE(ptr noundef nonnull align 8 dereferenceable(24) @_ZZN4node4wasi4WASID1EvE4args) #24
  tail call void @abort() #25
  unreachable

do.end6.i:                                        ; preds = %entry
  %memory_.i = getelementptr inbounds i8, ptr %this, i64 120
  %1 = load ptr, ptr %memory_.i, align 8
  %cmp.i.i.i = icmp eq ptr %1, null
  br i1 %cmp.i.i.i, label %_ZN4node4wasi4WASID2Ev.exit, label %if.end.i.i

if.end.i.i:                                       ; preds = %do.end6.i
  tail call void @_ZN2v812api_internal13DisposeGlobalEPm(ptr noundef nonnull %1) #24
  store ptr null, ptr %memory_.i, align 8
  br label %_ZN4node4wasi4WASID2Ev.exit

_ZN4node4wasi4WASID2Ev.exit:                      ; preds = %do.end6.i, %if.end.i.i
  tail call void @_ZN4node10BaseObjectD2Ev(ptr noundef nonnull align 8 dereferenceable(32) %this) #24
  tail call void @_ZdlPv(ptr noundef nonnull %this) #26
  ret void
}